(lp0
S'carbonate-unit-activity.in'
p1
aS'carbonate-debye-huckel-activity.in'
p2
aS'ca-carbonate-unit-activity.in'
p3
aS'ca-carbonate-debye-huckel-activity.in'
p4
aS'calcite-kinetics.in'
p5
aS'calcite-kinetics-volume-fractions.in'
p6
aS'general-reaction.in'
p7
aS'ion-exchange-valocchi.in'
p8
aS'surface-complexation-1.in'
p9
aS'calcite-area-per-mass.in'
p10
aS'calcite-area-per-mass1.in'
p11
aS'calcite-area-per-mass2.in'
p12
aS'calcite-area-per-vol1.in'
p13
aS'calcite-area-per-vol2.in'
p14
aS'1d-calcite.in'
p15
aS'1d-calcite-np2.in'
p16
aS'external_files.in'
p17
aS'543_flow.in'
p18
aS'543_flow_dbase.in'
p19
aS'543_flow_eos_default.in'
p20
aS'543_flow_eos_constant.in'
p21
aS'543_flow_eos_exponential.in'
p22
aS'543_flow_and_tracer.in'
p23
aS'543_flow_and_tracer_dbase.in'
p24
aS'543_hanford_srfcplx_base.in'
p25
aS'543_hanford_srfcplx_base_restart.in'
p26
aS'543_hanford_srfcplx_base_restart_hdf5.in'
p27
aS'543_hanford_overwrite_restart.in'
p28
aS'543_hanford_srfcplx_param.in'
p29
aS'543_flow-np8.in'
p30
aS'543_flow_and_tracer-np8.in'
p31
aS'543_hanford_srfcplx_param-np8.in'
p32
aS'th_1d.in'
p33
aS'th_ice_1d.in'
p34
aS'th_2d_seepage.in'
p35
aS'tracer.in'
p36
aS'solute_KD.in'
p37
aS'ABC_general_KD.in'
p38
aS'ABC_microbial.in'
p39
aS'ABCD_microbial.in'
p40
aS'mineral_prefactor.in'
p41
aS'valocchi_ionx.in'
p42
aS'surface_complexation_vf.in'
p43
aS'surface_complexation_den.in'
p44
aS'pyrite_dissolution.in'
p45
aS'multiphase_transport_pulse.in'
p46
aS'AB_microbial_linear_scaling.in'
p47
aS'AB_microbial_truncation.in'
p48
aS'ABCD_microbial.in'
p49
aS'ABCD_microbial_activation_low.in'
p50
aS'ABCD_microbial_activation_high.in'
p51
aS'solute_KD_w_mineral.in'
p52
aS'solute_KD_wo_mineral.in'
p53
aS'cybernetic.in'
p54
aS'tracer_age.in'
p55
aS'richards_default.in'
p56
aS'richards_constant.in'
p57
aS'richards_exponential.in'
p58
aS'general_default.in'
p59
aS'transverse.in'
p60
aS'transverse-np8.in'
p61
aS'1D_perm_press.in'
p62
aS'543_non_contig.in'
p63
aS'543_non_contig_h5.in'
p64
aS'evolving_material.in'
p65
aS'543_inactive_dataset.in'
p66
aS'543_inactive_material_property.in'
p67
aS'543_inactive_ascii_bc.in'
p68
aS'543_inactive_hdf5_bc.in'
p69
aS'0D_tort_func_por.in'
p70
aS'543_inactive_ascii_bc-np8.in'
p71
aS'543_inactive_hdf5_bc-np8.in'
p72
aS'543_inactive_ascii_bc_ugi-np8.in'
p73
aS'calcite_vsat_flow_and_tran_leijnse.in'
p74
aS'calcite_vsat_flow_and_tran_bragflo.in'
p75
aS'th_bragflo.in'
p76
aS'th_leijnse.in'
p77
aS'calcite_flow_and_tran_mnrl_vol.in'
p78
aS'calcite_flow_and_tran_mnrl_vol_leijnse.in'
p79
aS'calcite_flow_and_tran_mnrl_vol_perm.in'
p80
aS'16m.in'
p81
aS'vsat_flow.in'
p82
aS'transport_ABCD.in'
p83
aS'output_tecplot_point.in'
p84
aS'output_tecplot_block.in'
p85
aS'output_tecplot_febrick.in'
p86
aS'output_vtk.in'
p87
aS'output_hdf5.in'
p88
aS'output_xdmf.in'
p89
aS'output_xdmf_explicit.in'
p90
aS'output_xdmf_explicit_primal.in'
p91
aS'output_biosphere.in'
p92
aS'output_waste_form_wf.in'
p93
aS'output_sc_tecplot.in'
p94
aS'output_tecplot_block-np3.in'
p95
aS'output_vtk-np3.in'
p96
aS'output_hdf5-np3.in'
p97
aS'output_face_vel-np4.in'
p98
aS'general-ts-chk.in'
p99
aS'general-ts-h5.in'
p100
aS'general-t-chk.in'
p101
aS'general-t-h5.in'
p102
aS'1d_steady.in'
p103
aS'datum_dataset.in'
p104
aS'543_datum_dataset.in'
p105
aS'543_timeseries.in'
p106
aS'romain.in'
p107
aS'543_datum_dataset-np4.in'
p108
aS'top_surface_node_centered.in'
p109
aS'top_surface_cell_centered.in'
p110
aS'east_surface_node_centered.in'
p111
aS'east_surface_cell_centered.in'
p112
aS'north_surface_node_centered.in'
p113
aS'north_surface_cell_centered.in'
p114
aS'x_line_node_centered.in'
p115
aS'x_line_cell_centered.in'
p116
aS'y_line_node_centered.in'
p117
aS'y_line_cell_centered.in'
p118
aS'z_line_node_centered.in'
p119
aS'z_line_cell_centered.in'
p120
aS'543_river_het_map_dirich.in'
p121
aS'543_river_het_map_seep.in'
p122
aS'543_river_het_map_conduct.in'
p123
aS'543_river_het_map_dirich-np4.in'
p124
aS'tracer_1D.in'
p125
aS'reaction_log10.in'
p126
aS'0D_heat_TH.in'
p127
aS'0D_heat_MPH.in'
p128
aS'scco2.in'
p129
aS'mphase_chem.in'
p130
aS'scco2.in'
p131
aS'2x2x2_point0.in'
p132
aS'5x5x5_zone0.in'
p133
aS'5x5x5_zone1.in'
p134
aS'5x5x5_zone2.in'
p135
aS'5x5x5_line0.in'
p136
aS'5x5x5_line1.in'
p137
aS'5x5x5_line2.in'
p138
aS'5x5x5_line3.in'
p139
aS'9x9x9_cart_bound.in'
p140
aS'ugrid_sideset.in'
p141
aS'2x2x2_point0-np8.in'
p142
aS'5x5x5_zone0-np8.in'
p143
aS'5x5x5_zone1-np8.in'
p144
aS'5x5x5_zone2-np8.in'
p145
aS'5x5x5_line0-np8.in'
p146
aS'5x5x5_line1-np8.in'
p147
aS'5x5x5_line2-np8.in'
p148
aS'5x5x5_line3-np8.in'
p149
aS'9x9x9_cart_bound-np8.in'
p150
aS'543_ascii_cell_by_cell.in'
p151
aS'543_ascii_cell_by_cell_ugi.in'
p152
aS'543_hdf5_cell_by_cell_uge.in'
p153
aS'543_ascii_cell_by_cell-np8.in'
p154
aS'543_ascii_eighths-np8.in'
p155
aS'543_hdf5_cell_by_cell-np8.in'
p156
aS'543_hdf5_eighths-np8.in'
p157
aS'543_ascii_cell_by_cell_ugi-np8.in'
p158
aS'543_ascii_eighths_ugi-np8.in'
p159
aS'543_hdf5_cell_by_cell_uge-np8.in'
p160
aS'543_hdf5_eighths_uge-np8.in'
p161
aS'20x20_xz.in'
p162
aS'20x20_xz_general.in'
p163
aS'20x20_xz.in'
p164
aS'constant_velocity_1.in'
p165
aS'constant_velocity_2.in'
p166
aS'cyclic_velocity.in'
p167
aS'calcite_tran_only_hpt.in'
p168
aS'liquid_gas.in'
p169
aS'gas_injection.in'
p170
aS'case5.in'
p171
aS'calcite_flow_and_tran_general.in'
p172
aS'1d_flux.in'
p173
aS'1d_zero_cp.in'
p174
aS'1d_immiscible.in'
p175
aS'liquid_gas_analytical.in'
p176
aS'gas_injection_analytical.in'
p177
aS'gas_injection_immiscible.in'
p178
aS'case5_analytical.in'
p179
aS'ictest1D.in'
p180
aS'ictest2D.in'
p181
aS'gas_injection_scaled.in'
p182
aS'gas_injection-np4.in'
p183
aS'gas_injection_analytical-np4.in'
p184
aS'HGP_richards_small_domain-np7.in'
p185
aS'HGP_th_small_domain-np7.in'
p186
aS'CLM-CN.in'
p187
aS'mass_transfer_1d_in_z_1d.in'
p188
aS'mass_transfer_1d_in_z_3d.in'
p189
aS'sink.in'
p190
aS'source.in'
p191
aS'mass_transfer_1d_in_z_3d-np4.in'
p192
aS'calcite_tran_only.in'
p193
aS'calcite_flow_and_tran.in'
p194
aS'calcite_vsat_flow_and_tran.in'
p195
aS'vsat_flow.in'
p196
aS'vsat_flow_pulse.in'
p197
aS'vsat_flow_pulse_2layer.in'
p198
aS'regional_doublet_small.in'
p199
aS'stochastic_regional_doublet_small.in'
p200
aS'regional_doublet_small_conductance.in'
p201
aS'regional_doublet_small_gridded_dataset_xyz.in'
p202
aS'regional_doublet_small_gridded_dataset_xyz_anisotropic.in'
p203
aS'regional_doublet_small-np8.in'
p204
aS'stochastic_regional_doublet_small-np8.in'
p205
aS'cu_leaching.in'
p206
aS'1d_oil_flush.in'
p207
aS'1d_oil_flush_EOS_oil_linear.in'
p208
aS'eos_oil_lookup.in'
p209
aS'hydrostatic_owc.in'
p210
aS'1d_thermal_water_flood.in'
p211
aS'1d_oil_flush_aderivs.in'
p212
aS'1d_oil_flush_EOS_oil_linear_aderivs.in'
p213
aS'hydrostatic_owc_aderivs.in'
p214
aS'1d_thermal_water_flood_aderivs.in'
p215
aS'eos_oil_lookup_linlog_visc.in'
p216
aS'eos_oil_lookup_aderivs.in'
p217
aS'eos_oil_lookup_linlog_visc_aderivs.in'
p218
aS'1d_oil_flush_default_mpc.in'
p219
aS'1d_th_water_flood_ad_cc_tables.in'
p220
aS'1d_th_water_flood_ad_cc_tables.in'
p221
aS'1d_oil_flush_np2.in'
p222
aS'1d_oil_flush_np2_aderivs.in'
p223
aS'TOWG_OW_RCOL8.in'
p224
aS'TOWG_RCOL8.in'
p225
aS'TOWG_RCOL8_default_mpc.in'
p226
aS'TOWG_RCOL8_cc_table.in'
p227
aS'TOWG_RCOL8_np2.in'
p228
aS'tl_omega_0.in'
p229
aS'tl_omega_1.in'
p230
aS'tl_swag_omega_04.in'
p231
aS'tl_omega_1_pvt_table.in'
p232
aS'tl_omega_1_2t_ext_table.in'
p233
aS'tl_om1_table_linlog_visc.in'
p234
aS'tl4pr1.in'
p235
aS'tl_omega_0_default_mpc.in'
p236
aS'tl_omega_1_cc_tables.in'
p237
aS'tl_swag_omega_04_np2.in'
p238
aS'tl_omega_1_2t_ext_table_np2.in'
p239
aS'tl4pr1_np2.in'
p240
aS'tl4pr1_cc_tables_np2.in'
p241
aS'bt1reg.in'
p242
aS'bt2reg.in'
p243
aS'bt3reg.in'
p244
aS'bt4reg.in'
p245
aS'bt5reg.in'
p246
aS'bt6reg.in'
p247
aS'bt7reg.in'
p248
aS'bt8reg.in'
p249
aS'bt9reg.in'
p250
aS'bt10reg.in'
p251
aS'bt1reg_default_mpc.in'
p252
aS'bt4_cc_tables.in'
p253
aS'bt2reg_np2.in'
p254
aS'fmdm_dummy.in'
p255
aS'glass.in'
p256
aS'wf_doubles.in'
p257
aS'ufd_abc.in'
p258
aS'wf_region.in'
p259
aS'glass_full_geochem_np4.in'
p260
aS'ic.in'
p261
aS'ic-np4.in'
p262
aS'full.in'
p263
aS'no_creep_gas_fracture.in'
p264
aS'gas_generation.in'
p265
aS'gas_generation_scaled-np2.in'
p266
aS'case3.in'
p267
aS'case4r1_modified.in'
p268
aS'mixed_implicit.in'
p269
aS'mixed_explicit.in'
p270
aS'mixed_polyhedra.in'
p271
aS'cylindrical_ABCD_microbial.in'
p272
aS'mixed_implicit-np4.in'
p273
aS'mixed_explicit-np4.in'
p274
aS'uniaxial_strain.in'
p275
aS'uniaxial_strain-np4.in'
p276
aS'uniaxial_loading.in'
p277
aS'uniaxial_loading-np4.in'
p278
aS'uniaxial_loading_constant_pressure.in'
p279
aS'uniaxial_loading_hydrostatic_pressure.in'
p280
aS'uniaxial_loading_constant_pressure_timedependent_before.in'
p281
aS'uniaxial_loading_constant_pressure_timedependent_after.in'
p282
aS'uniaxial_loading_constant_pressure-np4.in'
p283
aS'uniaxial_loading_hydrostatic_pressure-np4.in'
p284
aS'terzaghi.in'
p285
aS'terzaghi-np4.in'
p286
aS'surface_flow_sloping_plane.in'
p287
aS'isothermal_infil_exfil.in'
p288
aS'spillover.in'
p289
aS'donothing.in'
p290
aS'noinfil.in'
p291
aS'infil.in'
p292
aS'surface_dirichlet.in'
p293
aS'surface_spillover.in'
p294
aS'surface_zero_gradheight.in'
p295
aS'donothing-np2.in'
p296
aS'surface_zero_gradheight-np2.in'
p297
a.