(lp0
S'carbonate-unit-activity.in'
p1
aS'carbonate-debye-huckel-activity.in'
p2
aS'ca-carbonate-unit-activity.in'
p3
aS'ca-carbonate-debye-huckel-activity.in'
p4
aS'calcite-kinetics.in'
p5
aS'calcite-kinetics-volume-fractions.in'
p6
aS'general-reaction.in'
p7
aS'ion-exchange-valocchi.in'
p8
aS'surface-complexation-1.in'
p9
aS'1d-calcite.in'
p10
aS'1d-calcite-np2.in'
p11
aS'external_files.in'
p12
aS'543_flow.in'
p13
aS'543_flow_dbase.in'
p14
aS'543_flow_eos_default.in'
p15
aS'543_flow_eos_constant.in'
p16
aS'543_flow_eos_exponential.in'
p17
aS'543_flow_and_tracer.in'
p18
aS'543_flow_and_tracer_dbase.in'
p19
aS'543_hanford_srfcplx_base.in'
p20
aS'543_hanford_srfcplx_base_restart.in'
p21
aS'543_hanford_srfcplx_base_restart_hdf5.in'
p22
aS'543_hanford_overwrite_restart.in'
p23
aS'543_hanford_srfcplx_param.in'
p24
aS'543_flow-np8.in'
p25
aS'543_flow_and_tracer-np8.in'
p26
aS'543_hanford_srfcplx_param-np8.in'
p27
aS'th_1d.in'
p28
aS'th_ice_1d.in'
p29
aS'th_2d_seepage.in'
p30
aS'tracer.in'
p31
aS'solute_KD.in'
p32
aS'ABC_general_KD.in'
p33
aS'ABC_microbial.in'
p34
aS'ABCD_microbial.in'
p35
aS'mineral_prefactor.in'
p36
aS'valocchi_ionx.in'
p37
aS'surface_complexation_vf.in'
p38
aS'surface_complexation_den.in'
p39
aS'pyrite_dissolution.in'
p40
aS'AB_microbial_linear_scaling.in'
p41
aS'AB_microbial_truncation.in'
p42
aS'ABCD_microbial.in'
p43
aS'ABCD_microbial_activation_low.in'
p44
aS'ABCD_microbial_activation_high.in'
p45
aS'solute_KD_w_mineral.in'
p46
aS'solute_KD_wo_mineral.in'
p47
aS'cybernetic.in'
p48
aS'tracer_age.in'
p49
aS'richards_default.in'
p50
aS'richards_constant.in'
p51
aS'richards_exponential.in'
p52
aS'general_default.in'
p53
aS'transverse.in'
p54
aS'transverse-np8.in'
p55
aS'1D_perm_press.in'
p56
aS'543_non_contig.in'
p57
aS'543_non_contig_h5.in'
p58
aS'evolving_material.in'
p59
aS'543_inactive_dataset.in'
p60
aS'543_inactive_material_property.in'
p61
aS'543_inactive_ascii_bc.in'
p62
aS'543_inactive_hdf5_bc.in'
p63
aS'0D_tort_func_por.in'
p64
aS'543_inactive_ascii_bc-np8.in'
p65
aS'543_inactive_hdf5_bc-np8.in'
p66
aS'543_inactive_ascii_bc_ugi-np8.in'
p67
aS'calcite_vsat_flow_and_tran_leijnse.in'
p68
aS'calcite_vsat_flow_and_tran_bragflo.in'
p69
aS'th_bragflo.in'
p70
aS'th_leijnse.in'
p71
aS'calcite_flow_and_tran_mnrl_vol.in'
p72
aS'calcite_flow_and_tran_mnrl_vol_leijnse.in'
p73
aS'calcite_flow_and_tran_mnrl_vol_perm.in'
p74
aS'16m.in'
p75
aS'vsat_flow.in'
p76
aS'transport_ABCD.in'
p77
aS'output_tecplot_point.in'
p78
aS'output_tecplot_block.in'
p79
aS'output_tecplot_febrick.in'
p80
aS'output_vtk.in'
p81
aS'output_hdf5.in'
p82
aS'output_xdmf.in'
p83
aS'output_xdmf_explicit.in'
p84
aS'output_xdmf_explicit_primal.in'
p85
aS'output_biosphere.in'
p86
aS'output_WIPP_pnl.in'
p87
aS'output_waste_form_wf.in'
p88
aS'output_tecplot_block-np3.in'
p89
aS'output_vtk-np3.in'
p90
aS'output_hdf5-np3.in'
p91
aS'general-ts-chk.in'
p92
aS'general-ts-h5.in'
p93
aS'general-t-chk.in'
p94
aS'general-t-h5.in'
p95
aS'1d_steady.in'
p96
aS'datum_dataset.in'
p97
aS'543_datum_dataset.in'
p98
aS'543_timeseries.in'
p99
aS'romain.in'
p100
aS'543_datum_dataset-np4.in'
p101
aS'top_surface_node_centered.in'
p102
aS'top_surface_cell_centered.in'
p103
aS'east_surface_node_centered.in'
p104
aS'east_surface_cell_centered.in'
p105
aS'north_surface_node_centered.in'
p106
aS'north_surface_cell_centered.in'
p107
aS'x_line_node_centered.in'
p108
aS'x_line_cell_centered.in'
p109
aS'y_line_node_centered.in'
p110
aS'y_line_cell_centered.in'
p111
aS'z_line_node_centered.in'
p112
aS'z_line_cell_centered.in'
p113
aS'543_river_het_map_dirich.in'
p114
aS'543_river_het_map_seep.in'
p115
aS'543_river_het_map_conduct.in'
p116
aS'543_river_het_map_dirich-np4.in'
p117
aS'tracer_1D.in'
p118
aS'reaction_log10.in'
p119
aS'0D_heat_TH.in'
p120
aS'0D_heat_MPH.in'
p121
aS'scco2.in'
p122
aS'mphase_chem.in'
p123
aS'scco2.in'
p124
aS'2x2x2_point0.in'
p125
aS'5x5x5_zone0.in'
p126
aS'5x5x5_zone1.in'
p127
aS'5x5x5_zone2.in'
p128
aS'5x5x5_line0.in'
p129
aS'5x5x5_line1.in'
p130
aS'5x5x5_line2.in'
p131
aS'5x5x5_line3.in'
p132
aS'9x9x9_cart_bound.in'
p133
aS'ugrid_sideset.in'
p134
aS'2x2x2_point0-np8.in'
p135
aS'5x5x5_zone0-np8.in'
p136
aS'5x5x5_zone1-np8.in'
p137
aS'5x5x5_zone2-np8.in'
p138
aS'5x5x5_line0-np8.in'
p139
aS'5x5x5_line1-np8.in'
p140
aS'5x5x5_line2-np8.in'
p141
aS'5x5x5_line3-np8.in'
p142
aS'9x9x9_cart_bound-np8.in'
p143
aS'543_ascii_cell_by_cell.in'
p144
aS'543_ascii_cell_by_cell_ugi.in'
p145
aS'543_hdf5_cell_by_cell_uge.in'
p146
aS'543_ascii_cell_by_cell-np8.in'
p147
aS'543_ascii_eighths-np8.in'
p148
aS'543_hdf5_cell_by_cell-np8.in'
p149
aS'543_hdf5_eighths-np8.in'
p150
aS'543_ascii_cell_by_cell_ugi-np8.in'
p151
aS'543_ascii_eighths_ugi-np8.in'
p152
aS'543_hdf5_cell_by_cell_uge-np8.in'
p153
aS'543_hdf5_eighths_uge-np8.in'
p154
aS'20x20_xz.in'
p155
aS'20x20_xz_general.in'
p156
aS'20x20_xz.in'
p157
aS'calcite_tran_only_hpt.in'
p158
aS'liquid_gas.in'
p159
aS'gas_injection.in'
p160
aS'case5.in'
p161
aS'calcite_flow_and_tran_general.in'
p162
aS'1d_flux.in'
p163
aS'1d_zero_cp.in'
p164
aS'1d_immiscible.in'
p165
aS'liquid_gas_analytical.in'
p166
aS'gas_injection_analytical.in'
p167
aS'gas_injection_immiscible.in'
p168
aS'case5_analytical.in'
p169
aS'gas_injection-np4.in'
p170
aS'gas_injection_analytical-np4.in'
p171
aS'HGP_richards_small_domain-np7.in'
p172
aS'HGP_th_small_domain-np7.in'
p173
aS'CLM-CN.in'
p174
aS'mass_transfer_1d_in_z_1d.in'
p175
aS'mass_transfer_1d_in_z_3d.in'
p176
aS'sink.in'
p177
aS'source.in'
p178
aS'mass_transfer_1d_in_z_3d-np4.in'
p179
aS'calcite_tran_only.in'
p180
aS'calcite_flow_and_tran.in'
p181
aS'calcite_vsat_flow_and_tran.in'
p182
aS'vsat_flow.in'
p183
aS'vsat_flow_pulse.in'
p184
aS'vsat_flow_pulse_2layer.in'
p185
aS'regional_doublet_small.in'
p186
aS'stochastic_regional_doublet_small.in'
p187
aS'regional_doublet_small_conductance.in'
p188
aS'regional_doublet_small_gridded_dataset_xyz.in'
p189
aS'regional_doublet_small_gridded_dataset_xyz_anisotropic.in'
p190
aS'regional_doublet_small-np8.in'
p191
aS'stochastic_regional_doublet_small-np8.in'
p192
aS'cu_leaching.in'
p193
aS'1d_oil_flush.in'
p194
aS'1d_oil_flush_EOS_oil_linear.in'
p195
aS'eos_oil_lookup.in'
p196
aS'hydrostatic_owc.in'
p197
aS'1d_thermal_water_flood.in'
p198
aS'1d_oil_flush_np2.in'
p199
aS'TOWG_OW_RCOL8.in'
p200
aS'TOWG_RCOL8.in'
p201
aS'TOWG_RCOL8_np2.in'
p202
aS'fmdm_dummy.in'
p203
aS'glass.in'
p204
aS'wf_doubles.in'
p205
aS'ufd_abc.in'
p206
aS'wf_region.in'
p207
aS'glass_full_geochem_np4.in'
p208
aS'case3.in'
p209
aS'case4r1_modified.in'
p210
aS'case001_1d_radial_drawdown_dirichlet.in'
p211
aS'case002_1d_infiltration.in'
p212
aS'case004_2d_infiltration_ideal.in'
p213
aS'case005_2d_gas_injection.in'
p214
aS'case006a_2d_gas_generation.in'
p215
aS'case006b_2d_creep_closure_gas_gen.in'
p216
aS'case006c_1d_fracture_dilation.in'
p217
aS'case006d_1d_klinkenberg.in'
p218
aS'case006e_0d_rks_gas_density.in'
p219
aS'case008_1d_twophase_producer_bhp.in'
p220
aS'case008_1d_twophase_producer_bhp-2.in'
p221
aS'case009_1d_heterogeneous_perm.in'
p222
aS'case010_1d_radial_drawdown_neumann.in'
p223
aS'case011_1d_water_column.in'
p224
aS'case006a_2d_gas_generation-np4.in'
p225
aS'case006b_2d_creep_closure_gas_gen-np4.in'
p226
aS'mixed_implicit.in'
p227
aS'mixed_explicit.in'
p228
aS'dfn_explicit.in'
p229
aS'mixed_polyhedra.in'
p230
aS'cylindrical_ABCD_microbial.in'
p231
aS'mixed_implicit-np4.in'
p232
aS'mixed_explicit-np4.in'
p233
aS'dfn_explicit-np4.in'
p234
aS'uniaxial_strain.in'
p235
aS'uniaxial_strain-np4.in'
p236
aS'uniaxial_loading.in'
p237
aS'uniaxial_loading-np4.in'
p238
aS'uniaxial_loading_constant_pressure.in'
p239
aS'uniaxial_loading_hydrostatic_pressure.in'
p240
aS'uniaxial_loading_constant_pressure-np4.in'
p241
aS'uniaxial_loading_hydrostatic_pressure-np4.in'
p242
aS'surface_flow_sloping_plane.in'
p243
aS'isothermal_infil_exfil.in'
p244
aS'spillover.in'
p245
aS'donothing.in'
p246
aS'noinfil.in'
p247
aS'infil.in'
p248
aS'surface_dirichlet.in'
p249
aS'surface_spillover.in'
p250
aS'surface_zero_gradheight.in'
p251
aS'donothing-np2.in'
p252
aS'surface_zero_gradheight-np2.in'
p253
a.